target datalayout = "e-m:e-p270:32:32-p271:32:32-p272:64:64-i64:64-i128:128-f80:128-n8:16:32:64-S128"
target triple = "x86_64-pc-linux-gnu"

; Function Attrs: nounwind uwtable
define internal void @SDL_Convert61To41(ptr noundef %0, ptr noundef %1, i32 noundef %2) #0 {
  %4 = alloca ptr, align 8
  %5 = alloca ptr, align 8
  %6 = alloca i32, align 4
  %7 = alloca i32, align 4
  %8 = alloca float, align 4
  %9 = alloca float, align 4
  %10 = alloca float, align 4
  %11 = alloca float, align 4
  store ptr %0, ptr %4, align 8
  store ptr %1, ptr %5, align 8
  store i32 %2, ptr %6, align 4
  call void @llvm.lifetime.start.p0(i64 4, ptr %7) #7
  %12 = load i32, ptr %6, align 4
  store i32 %12, ptr %7, align 4
  br label %13

13:                                               ; preds = %66, %3
  %14 = load i32, ptr %7, align 4
  %15 = icmp ne i32 %14, 0
  br i1 %15, label %16, label %73

16:                                               ; preds = %13
  call void @llvm.lifetime.start.p0(i64 4, ptr %8) #7
  %17 = load ptr, ptr %5, align 8
  %18 = getelementptr inbounds float, ptr %17, i64 2
  %19 = load float, ptr %18, align 4
  store float %19, ptr %8, align 4
  call void @llvm.lifetime.start.p0(i64 4, ptr %9) #7
  %20 = load ptr, ptr %5, align 8
  %21 = getelementptr inbounds float, ptr %20, i64 4
  %22 = load float, ptr %21, align 4
  store float %22, ptr %9, align 4
  call void @llvm.lifetime.start.p0(i64 4, ptr %10) #7
  %23 = load ptr, ptr %5, align 8
  %24 = getelementptr inbounds float, ptr %23, i64 5
  %25 = load float, ptr %24, align 4
  store float %25, ptr %10, align 4
  call void @llvm.lifetime.start.p0(i64 4, ptr %11) #7
  %26 = load ptr, ptr %5, align 8
  %27 = getelementptr inbounds float, ptr %26, i64 6
  %28 = load float, ptr %27, align 4
  store float %28, ptr %11, align 4
  %29 = load ptr, ptr %5, align 8
  %30 = getelementptr inbounds float, ptr %29, i64 0
  %31 = load float, ptr %30, align 4
  %32 = load float, ptr %8, align 4
  %33 = fmul float %32, 0x3FD5D2F1A0000000
  %34 = call float @llvm.fmuladd.f32(float %31, float 0x3FDEE978E0000000, float %33)
  %35 = load float, ptr %10, align 4
  %36 = call float @llvm.fmuladd.f32(float %35, float 0x3FC6872B00000000, float %34)
  %37 = load ptr, ptr %4, align 8
  %38 = getelementptr inbounds float, ptr %37, i64 0
  store float %36, ptr %38, align 4
  %39 = load ptr, ptr %5, align 8
  %40 = getelementptr inbounds float, ptr %39, i64 1
  %41 = load float, ptr %40, align 4
  %42 = load float, ptr %8, align 4
  %43 = fmul float %42, 0x3FD5D2F1A0000000
  %44 = call float @llvm.fmuladd.f32(float %41, float 0x3FDEE978E0000000, float %43)
  %45 = load float, ptr %11, align 4
  %46 = call float @llvm.fmuladd.f32(float %45, float 0x3FC6872B00000000, float %44)
  %47 = load ptr, ptr %4, align 8
  %48 = getelementptr inbounds float, ptr %47, i64 1
  store float %46, ptr %48, align 4
  %49 = load ptr, ptr %5, align 8
  %50 = getelementptr inbounds float, ptr %49, i64 3
  %51 = load float, ptr %50, align 4
  %52 = load ptr, ptr %4, align 8
  %53 = getelementptr inbounds float, ptr %52, i64 2
  store float %51, ptr %53, align 4
  %54 = load float, ptr %9, align 4
  %55 = load float, ptr %10, align 4
  %56 = fmul float %55, 0x3FDCBC6A80000000
  %57 = call float @llvm.fmuladd.f32(float %54, float 0x3FD5D2F1A0000000, float %56)
  %58 = load ptr, ptr %4, align 8
  %59 = getelementptr inbounds float, ptr %58, i64 3
  store float %57, ptr %59, align 4
  %60 = load float, ptr %9, align 4
  %61 = load float, ptr %11, align 4
  %62 = fmul float %61, 0x3FDCBC6A80000000
  %63 = call float @llvm.fmuladd.f32(float %60, float 0x3FD5D2F1A0000000, float %62)
  %64 = load ptr, ptr %4, align 8
  %65 = getelementptr inbounds float, ptr %64, i64 4
  store float %63, ptr %65, align 4
  call void @llvm.lifetime.end.p0(i64 4, ptr %11) #7
  call void @llvm.lifetime.end.p0(i64 4, ptr %10) #7
  call void @llvm.lifetime.end.p0(i64 4, ptr %9) #7
  call void @llvm.lifetime.end.p0(i64 4, ptr %8) #7
  br label %66

66:                                               ; preds = %16
  %67 = load i32, ptr %7, align 4
  %68 = add nsw i32 %67, -1
  store i32 %68, ptr %7, align 4
  %69 = load ptr, ptr %5, align 8
  %70 = getelementptr inbounds float, ptr %69, i64 7
  store ptr %70, ptr %5, align 8
  %71 = load ptr, ptr %4, align 8
  %72 = getelementptr inbounds float, ptr %71, i64 5
  store ptr %72, ptr %4, align 8
  br label %13, !llvm.loop !90

73:                                               ; preds = %13
  call void @llvm.lifetime.end.p0(i64 4, ptr %7) #7
  ret void
}