; Function Attrs: nofree norecurse nosync nounwind memory(argmem: readwrite) uwtable
define internal void @SDL_Convert61To41(ptr noundef writeonly captures(none) %0, ptr noundef readonly captures(none) %1, i32 noundef %2) #5 {
  %.not26 = icmp eq i32 %2, 0
  br i1 %.not26, label %._crit_edge, label %.lr.ph

.lr.ph:                                           ; preds = %3, %.lr.ph
  %.029 = phi ptr [ %32, %.lr.ph ], [ %0, %3 ]
  %.02428 = phi ptr [ %31, %.lr.ph ], [ %1, %3 ]
  %.02527 = phi i32 [ %30, %.lr.ph ], [ %2, %3 ]
  %4 = getelementptr inbounds nuw i8, ptr %.02428, i64 8
  %5 = load float, ptr %4, align 4
  %6 = getelementptr inbounds nuw i8, ptr %.02428, i64 16
  %7 = load float, ptr %6, align 4
  %8 = getelementptr inbounds nuw i8, ptr %.02428, i64 20
  %9 = load float, ptr %8, align 4
  %10 = getelementptr inbounds nuw i8, ptr %.02428, i64 24
  %11 = load float, ptr %10, align 4
  %12 = load float, ptr %.02428, align 4
  %13 = fmul float %5, 0x3FD5D2F1A0000000
  %14 = tail call float @llvm.fmuladd.f32(float %12, float 0x3FDEE978E0000000, float %13)
  %15 = tail call float @llvm.fmuladd.f32(float %9, float 0x3FC6872B00000000, float %14)
  store float %15, ptr %.029, align 4
  %16 = getelementptr inbounds nuw i8, ptr %.02428, i64 4
  %17 = load float, ptr %16, align 4
  %18 = tail call float @llvm.fmuladd.f32(float %17, float 0x3FDEE978E0000000, float %13)
  %19 = tail call float @llvm.fmuladd.f32(float %11, float 0x3FC6872B00000000, float %18)
  %20 = getelementptr inbounds nuw i8, ptr %.029, i64 4
  store float %19, ptr %20, align 4
  %21 = getelementptr inbounds nuw i8, ptr %.02428, i64 12
  %22 = load float, ptr %21, align 4
  %23 = getelementptr inbounds nuw i8, ptr %.029, i64 8
  store float %22, ptr %23, align 4
  %24 = fmul float %9, 0x3FDCBC6A80000000
  %25 = tail call float @llvm.fmuladd.f32(float %7, float 0x3FD5D2F1A0000000, float %24)
  %26 = getelementptr inbounds nuw i8, ptr %.029, i64 12
  store float %25, ptr %26, align 4
  %27 = fmul float %11, 0x3FDCBC6A80000000
  %28 = tail call float @llvm.fmuladd.f32(float %7, float 0x3FD5D2F1A0000000, float %27)
  %29 = getelementptr inbounds nuw i8, ptr %.029, i64 16
  store float %28, ptr %29, align 4
  %30 = add nsw i32 %.02527, -1
  %31 = getelementptr inbounds nuw i8, ptr %.02428, i64 28
  %32 = getelementptr inbounds nuw i8, ptr %.029, i64 20
  %.not = icmp eq i32 %30, 0
  br i1 %.not, label %._crit_edge, label %.lr.ph, !llvm.loop !96

._crit_edge:                                      ; preds = %.lr.ph, %3
  ret void
}